target datalayout = "e-m:e-p270:32:32-p271:32:32-p272:64:64-i64:64-i128:128-f80:128-n8:16:32:64-S128"
target triple = "x86_64-unknown-linux-gnu"

%"struct.std::nothrow_t" = type { i8 }
%"class.zmq::ws_engine_t" = type { %"class.zmq::stream_engine_base_t.base", i8, %"class.zmq::ws_address_t", i32, i32, [8192 x i8], [8192 x i8], [1025 x i8], i32, [2049 x i8], i32, i8, i8, [256 x i8], [2049 x i8], [2049 x i8], i32, %"class.zmq::msg_t" }
%"class.zmq::stream_engine_base_t.base" = type <{ %"class.zmq::io_object_t", %"struct.zmq::i_engine", %"struct.zmq::options_t", ptr, i64, ptr, ptr, i64, ptr, ptr, { i64, i64 }, { i64, i64 }, ptr, i8, i8, [6 x i8], %"struct.zmq::endpoint_uri_pair_t", i8, i8, i8, i8, [4 x i8], %"class.std::__cxx11::basic_string", i32, [4 x i8], ptr, i8, i8, [6 x i8], %"class.zmq::msg_t", i8, [7 x i8], ptr, ptr, i8 }>
%"class.zmq::io_object_t" = type { %"struct.zmq::i_poll_events", ptr }
%"struct.zmq::i_poll_events" = type { ptr }
%"struct.zmq::i_engine" = type { ptr }
%"struct.zmq::options_t" = type { i32, i32, i64, i8, [256 x i8], i32, i32, i32, i32, i32, i32, i32, i32, i8, %"struct.zmq::atomic_value_t", i32, i32, i32, i32, i32, i32, i64, i32, i32, i8, i32, i8, i8, i8, i8, i8, %"class.std::__cxx11::basic_string", %"class.std::__cxx11::basic_string", %"class.std::__cxx11::basic_string", i32, i32, i32, i32, %"class.std::vector", %"class.std::set", %"class.std::set", %"class.std::set.6", i32, i32, %"class.std::__cxx11::basic_string", %"class.std::__cxx11::basic_string", %"class.std::__cxx11::basic_string", [32 x i8], [32 x i8], [32 x i8], %"class.std::__cxx11::basic_string", %"class.std::__cxx11::basic_string", i32, i32, i8, i32, i8, i32, i8, i16, i32, i32, i32, %"class.std::__cxx11::basic_string", i8, i8, i8, i32, i32, i8, i32, %"class.std::map", i32, %"class.std::__cxx11::basic_string", %"class.std::__cxx11::basic_string", %"class.std::__cxx11::basic_string", %"class.std::__cxx11::basic_string", i8, %"class.std::vector.21", i8, %"class.std::vector.21", i8, %"class.std::vector.21", i8, i32, i8, i32, i32, i32, i32, i32, i8, i32 }
%"struct.zmq::atomic_value_t" = type { %"struct.std::atomic" }
%"struct.std::atomic" = type { %"struct.std::__atomic_base" }
%"struct.std::__atomic_base" = type { i32 }
%"class.std::vector" = type { %"struct.std::_Vector_base" }
%"struct.std::_Vector_base" = type { %"struct.std::_Vector_base<zmq::tcp_address_mask_t, std::allocator<zmq::tcp_address_mask_t>>::_Vector_impl" }
%"struct.std::_Vector_base<zmq::tcp_address_mask_t, std::allocator<zmq::tcp_address_mask_t>>::_Vector_impl" = type { %"struct.std::_Vector_base<zmq::tcp_address_mask_t, std::allocator<zmq::tcp_address_mask_t>>::_Vector_impl_data" }
%"struct.std::_Vector_base<zmq::tcp_address_mask_t, std::allocator<zmq::tcp_address_mask_t>>::_Vector_impl_data" = type { ptr, ptr, ptr }
%"class.std::set" = type { %"class.std::_Rb_tree" }
%"class.std::_Rb_tree" = type { %"struct.std::_Rb_tree<unsigned int, unsigned int, std::_Identity<unsigned int>, std::less<unsigned int>>::_Rb_tree_impl" }
%"struct.std::_Rb_tree<unsigned int, unsigned int, std::_Identity<unsigned int>, std::less<unsigned int>>::_Rb_tree_impl" = type { %"struct.std::_Rb_tree_key_compare", %"struct.std::_Rb_tree_header" }
%"struct.std::_Rb_tree_key_compare" = type { %"struct.std::less" }
%"struct.std::less" = type { i8 }
%"struct.std::_Rb_tree_header" = type { %"struct.std::_Rb_tree_node_base", i64 }
%"struct.std::_Rb_tree_node_base" = type { i32, ptr, ptr, ptr }
%"class.std::set.6" = type { %"class.std::_Rb_tree.7" }
%"class.std::_Rb_tree.7" = type { %"struct.std::_Rb_tree<int, int, std::_Identity<int>, std::less<int>>::_Rb_tree_impl" }
%"struct.std::_Rb_tree<int, int, std::_Identity<int>, std::less<int>>::_Rb_tree_impl" = type { %"struct.std::_Rb_tree_key_compare.11", %"struct.std::_Rb_tree_header" }
%"struct.std::_Rb_tree_key_compare.11" = type { %"struct.std::less.12" }
%"struct.std::less.12" = type { i8 }
%"class.std::map" = type { %"class.std::_Rb_tree.14" }
%"class.std::_Rb_tree.14" = type { %"struct.std::_Rb_tree<std::__cxx11::basic_string<char>, std::pair<const std::__cxx11::basic_string<char>, std::__cxx11::basic_string<char>>, std::_Select1st<std::pair<const std::__cxx11::basic_string<char>, std::__cxx11::basic_string<char>>>, std::less<std::__cxx11::basic_string<char>>>::_Rb_tree_impl" }
%"struct.std::_Rb_tree<std::__cxx11::basic_string<char>, std::pair<const std::__cxx11::basic_string<char>, std::__cxx11::basic_string<char>>, std::_Select1st<std::pair<const std::__cxx11::basic_string<char>, std::__cxx11::basic_string<char>>>, std::less<std::__cxx11::basic_string<char>>>::_Rb_tree_impl" = type { %"struct.std::_Rb_tree_key_compare.18", %"struct.std::_Rb_tree_header" }
%"struct.std::_Rb_tree_key_compare.18" = type { %"struct.std::less.19" }
%"struct.std::less.19" = type { i8 }
%"class.std::vector.21" = type { %"struct.std::_Vector_base.22" }
%"struct.std::_Vector_base.22" = type { %"struct.std::_Vector_base<unsigned char, std::allocator<unsigned char>>::_Vector_impl" }
%"struct.std::_Vector_base<unsigned char, std::allocator<unsigned char>>::_Vector_impl" = type { %"struct.std::_Vector_base<unsigned char, std::allocator<unsigned char>>::_Vector_impl_data" }
%"struct.std::_Vector_base<unsigned char, std::allocator<unsigned char>>::_Vector_impl_data" = type { ptr, ptr, ptr }
%"struct.zmq::endpoint_uri_pair_t" = type <{ %"class.std::__cxx11::basic_string", %"class.std::__cxx11::basic_string", i32, [4 x i8] }>
%"class.std::__cxx11::basic_string" = type { %"struct.std::__cxx11::basic_string<char>::_Alloc_hider", i64, %union.anon }
%"struct.std::__cxx11::basic_string<char>::_Alloc_hider" = type { ptr }
%union.anon = type { i64, [8 x i8] }
%"class.zmq::ws_address_t" = type { %"union.zmq::ip_addr_t", %"class.std::__cxx11::basic_string", %"class.std::__cxx11::basic_string" }
%"union.zmq::ip_addr_t" = type { %struct.sockaddr_in6 }
%struct.sockaddr_in6 = type { i16, i16, i32, %struct.in6_addr, i32 }
%struct.in6_addr = type { %union.anon.34 }
%union.anon.34 = type { [4 x i32] }
%"class.zmq::msg_t" = type { %union.anon.26 }
%union.anon.26 = type { %struct.anon }
%struct.anon = type { ptr, [34 x i8], i8, i8, i32, %"union.zmq::msg_t::group_t" }
%"union.zmq::msg_t::group_t" = type { %struct.anon.28 }
%struct.anon.28 = type { i8, ptr }
%"class.zmq::stream_engine_base_t" = type <{ %"class.zmq::io_object_t", %"struct.zmq::i_engine", %"struct.zmq::options_t", ptr, i64, ptr, ptr, i64, ptr, ptr, { i64, i64 }, { i64, i64 }, ptr, i8, i8, [6 x i8], %"struct.zmq::endpoint_uri_pair_t", i8, i8, i8, i8, [4 x i8], %"class.std::__cxx11::basic_string", i32, [4 x i8], ptr, i8, i8, [6 x i8], %"class.zmq::msg_t", i8, [7 x i8], ptr, ptr, i8, [7 x i8] }>

@stderr = external global ptr, align 8
@.str.5 = private unnamed_addr constant [109 x i8] c"generated/home/dtcxzyw/WorkSpace/Projects/compilers/llvm-opt-benchmark/bench/libzmq/libzmq/src/ws_engine.cpp\00", align 1
@_ZSt7nothrow = external global %"struct.std::nothrow_t", align 1
@.str.8 = private unnamed_addr constant [36 x i8] c"FATAL ERROR: OUT OF MEMORY (%s:%d)\0A\00", align 1
@.str.9 = private unnamed_addr constant [27 x i8] c"FATAL ERROR: OUT OF MEMORY\00", align 1

; Function Attrs: mustprogress uwtable
define linkonce_odr void @_ZN3zmq20stream_engine_base_t11set_polloutEv(ptr noundef nonnull align 8 dereferenceable(1689) %this) #0 comdat align 2 {
entry:
  %this.addr = alloca ptr, align 8
  store ptr %this, ptr %this.addr, align 8
  %this1 = load ptr, ptr %this.addr, align 8
  %_handle = getelementptr inbounds %"class.zmq::stream_engine_base_t", ptr %this1, i32 0, i32 25
  %0 = load ptr, ptr %_handle, align 8
  call void @_ZN3zmq11io_object_t11set_polloutEPv(ptr noundef nonnull align 8 dereferenceable(16) %this1, ptr noundef %0)
  ret void
}

; Function Attrs: mustprogress nounwind uwtable
define linkonce_odr noundef ptr @_ZN3zmq20stream_engine_base_t6socketEv(ptr noundef nonnull align 8 dereferenceable(1689) %this) #3 comdat align 2 {
entry:
  %this.addr = alloca ptr, align 8
  store ptr %this, ptr %this.addr, align 8
  %this1 = load ptr, ptr %this.addr, align 8
  %_socket = getelementptr inbounds %"class.zmq::stream_engine_base_t", ptr %this1, i32 0, i32 33
  %0 = load ptr, ptr %_socket, align 8
  ret ptr %0
}

; Function Attrs: mustprogress uwtable
define noundef zeroext i1 @_ZN3zmq11ws_engine_t9handshakeEv(ptr noundef nonnull align 8 dereferenceable(25696) %this) unnamed_addr #0 align 2 personality ptr @__gxx_personality_v0 {
entry:
  %this.addr = alloca ptr, align 8
  %complete = alloca i8, align 1
  %saved-rvalue = alloca ptr, align 8
  %cleanup.cond = alloca i1, align 1
  %exn.slot = alloca ptr, align 8
  %ehselector.slot = alloca i32, align 4
  %saved-rvalue19 = alloca ptr, align 8
  %cleanup.cond20 = alloca i1, align 1
  store ptr %this, ptr %this.addr, align 8
  %this1 = load ptr, ptr %this.addr, align 8
  %_client = getelementptr inbounds %"class.zmq::ws_engine_t", ptr %this1, i32 0, i32 1
  %0 = load i8, ptr %_client, align 1
  %tobool = trunc i8 %0 to i1
  br i1 %tobool, label %if.then, label %if.else

if.then:                                          ; preds = %entry
  %call = call noundef zeroext i1 @_ZN3zmq11ws_engine_t16client_handshakeEv(ptr noundef nonnull align 8 dereferenceable(25696) %this1)
  %frombool = zext i1 %call to i8
  store i8 %frombool, ptr %complete, align 1
  br label %if.end

if.else:                                          ; preds = %entry
  %call2 = call noundef zeroext i1 @_ZN3zmq11ws_engine_t16server_handshakeEv(ptr noundef nonnull align 8 dereferenceable(25696) %this1)
  %frombool3 = zext i1 %call2 to i8
  store i8 %frombool3, ptr %complete, align 1
  br label %if.end

if.end:                                           ; preds = %if.else, %if.then
  %1 = load i8, ptr %complete, align 1
  %tobool4 = trunc i8 %1 to i1
  br i1 %tobool4, label %if.then5, label %if.end46

if.then5:                                         ; preds = %if.end
  %call6 = call noalias noundef ptr @_ZnwmRKSt9nothrow_t(i64 noundef 168, ptr noundef nonnull align 1 dereferenceable(1) @_ZSt7nothrow) #18
  %new.isnull = icmp eq ptr %call6, null
  store i1 false, ptr %cleanup.cond, align 1
  br i1 %new.isnull, label %new.cont, label %new.notnull

new.notnull:                                      ; preds = %if.then5
  store ptr %call6, ptr %saved-rvalue, align 8
  store i1 true, ptr %cleanup.cond, align 1
  %_options = getelementptr inbounds %"class.zmq::stream_engine_base_t", ptr %this1, i32 0, i32 2
  %out_batch_size = getelementptr inbounds %"struct.zmq::options_t", ptr %_options, i32 0, i32 68
  %2 = load i32, ptr %out_batch_size, align 8
  %conv = sext i32 %2 to i64
  %_client7 = getelementptr inbounds %"class.zmq::ws_engine_t", ptr %this1, i32 0, i32 1
  %3 = load i8, ptr %_client7, align 1
  %tobool8 = trunc i8 %3 to i1
  invoke void @_ZN3zmq12ws_encoder_tC1Emb(ptr noundef nonnull align 8 dereferenceable(168) %call6, i64 noundef %conv, i1 noundef zeroext %tobool8)
          to label %invoke.cont unwind label %lpad

invoke.cont:                                      ; preds = %new.notnull
  br label %new.cont

new.cont:                                         ; preds = %invoke.cont, %if.then5
  %4 = phi ptr [ %call6, %invoke.cont ], [ null, %if.then5 ]
  %_encoder = getelementptr inbounds %"class.zmq::stream_engine_base_t", ptr %this1, i32 0, i32 8
  store ptr %4, ptr %_encoder, align 8
  br label %do.body

do.body:                                          ; preds = %new.cont
  %_encoder9 = getelementptr inbounds %"class.zmq::stream_engine_base_t", ptr %this1, i32 0, i32 8
  %5 = load ptr, ptr %_encoder9, align 8
  %tobool10 = icmp ne ptr %5, null
  %lnot = xor i1 %tobool10, true
  br i1 %lnot, label %if.then12, label %if.end15

if.then12:                                        ; preds = %do.body
  %6 = load ptr, ptr @stderr, align 8
  %call13 = call i32 (ptr, ptr, ...) @fprintf(ptr noundef %6, ptr noundef @.str.8, ptr noundef @.str.5, i32 noundef 245)
  %7 = load ptr, ptr @stderr, align 8
  %call14 = call i32 @fflush(ptr noundef %7)
  call void @_ZN3zmq9zmq_abortEPKc(ptr noundef @.str.9)
  br label %if.end15

lpad:                                             ; preds = %new.notnull
  %8 = landingpad { ptr, i32 }
          cleanup
  %9 = extractvalue { ptr, i32 } %8, 0
  store ptr %9, ptr %exn.slot, align 8
  %10 = extractvalue { ptr, i32 } %8, 1
  store i32 %10, ptr %ehselector.slot, align 4
  %cleanup.is_active = load i1, ptr %cleanup.cond, align 1
  br i1 %cleanup.is_active, label %cleanup.action, label %cleanup.done

cleanup.action:                                   ; preds = %lpad
  %11 = load ptr, ptr %saved-rvalue, align 8
  call void @_ZdlPvRKSt9nothrow_t(ptr noundef %11, ptr noundef nonnull align 1 dereferenceable(1) @_ZSt7nothrow) #15
  br label %cleanup.done

cleanup.done:                                     ; preds = %cleanup.action, %lpad
  br label %eh.resume

if.end15:                                         ; preds = %if.then12, %do.body
  br label %do.end

do.end:                                           ; preds = %if.end15
  %call16 = call noalias noundef ptr @_ZnwmRKSt9nothrow_t(i64 noundef 208, ptr noundef nonnull align 1 dereferenceable(1) @_ZSt7nothrow) #18
  %new.isnull17 = icmp eq ptr %call16, null
  store i1 false, ptr %cleanup.cond20, align 1
  br i1 %new.isnull17, label %new.cont34, label %new.notnull18

new.notnull18:                                    ; preds = %do.end
  store ptr %call16, ptr %saved-rvalue19, align 8
  store i1 true, ptr %cleanup.cond20, align 1
  %_options21 = getelementptr inbounds %"class.zmq::stream_engine_base_t", ptr %this1, i32 0, i32 2
  %in_batch_size = getelementptr inbounds %"struct.zmq::options_t", ptr %_options21, i32 0, i32 67
  %12 = load i32, ptr %in_batch_size, align 4
  %conv22 = sext i32 %12 to i64
  %_options23 = getelementptr inbounds %"class.zmq::stream_engine_base_t", ptr %this1, i32 0, i32 2
  %maxmsgsize = getelementptr inbounds %"struct.zmq::options_t", ptr %_options23, i32 0, i32 21
  %13 = load i64, ptr %maxmsgsize, align 8
  %_options24 = getelementptr inbounds %"class.zmq::stream_engine_base_t", ptr %this1, i32 0, i32 2
  %zero_copy = getelementptr inbounds %"struct.zmq::options_t", ptr %_options24, i32 0, i32 69
  %14 = load i8, ptr %zero_copy, align 4
  %tobool25 = trunc i8 %14 to i1
  %_client26 = getelementptr inbounds %"class.zmq::ws_engine_t", ptr %this1, i32 0, i32 1
  %15 = load i8, ptr %_client26, align 1
  %tobool27 = trunc i8 %15 to i1
  %lnot28 = xor i1 %tobool27, true
  invoke void @_ZN3zmq12ws_decoder_tC1Emlbb(ptr noundef nonnull align 8 dereferenceable(208) %call16, i64 noundef %conv22, i64 noundef %13, i1 noundef zeroext %tobool25, i1 noundef zeroext %lnot28)
          to label %invoke.cont30 unwind label %lpad29

invoke.cont30:                                    ; preds = %new.notnull18
  br label %new.cont34

new.cont34:                                       ; preds = %invoke.cont30, %do.end
  %16 = phi ptr [ %call16, %invoke.cont30 ], [ null, %do.end ]
  %_decoder = getelementptr inbounds %"class.zmq::stream_engine_base_t", ptr %this1, i32 0, i32 5
  store ptr %16, ptr %_decoder, align 8
  br label %do.body35

do.body35:                                        ; preds = %new.cont34
  %_decoder36 = getelementptr inbounds %"class.zmq::stream_engine_base_t", ptr %this1, i32 0, i32 5
  %17 = load ptr, ptr %_decoder36, align 8
  %tobool37 = icmp ne ptr %17, null
  %lnot38 = xor i1 %tobool37, true
  br i1 %lnot38, label %if.then40, label %if.end43

if.then40:                                        ; preds = %do.body35
  %18 = load ptr, ptr @stderr, align 8
  %call41 = call i32 (ptr, ptr, ...) @fprintf(ptr noundef %18, ptr noundef @.str.8, ptr noundef @.str.5, i32 noundef 250)
  %19 = load ptr, ptr @stderr, align 8
  %call42 = call i32 @fflush(ptr noundef %19)
  call void @_ZN3zmq9zmq_abortEPKc(ptr noundef @.str.9)
  br label %if.end43

lpad29:                                           ; preds = %new.notnull18
  %20 = landingpad { ptr, i32 }
          cleanup
  %21 = extractvalue { ptr, i32 } %20, 0
  store ptr %21, ptr %exn.slot, align 8
  %22 = extractvalue { ptr, i32 } %20, 1
  store i32 %22, ptr %ehselector.slot, align 4
  %cleanup.is_active31 = load i1, ptr %cleanup.cond20, align 1
  br i1 %cleanup.is_active31, label %cleanup.action32, label %cleanup.done33

cleanup.action32:                                 ; preds = %lpad29
  %23 = load ptr, ptr %saved-rvalue19, align 8
  call void @_ZdlPvRKSt9nothrow_t(ptr noundef %23, ptr noundef nonnull align 1 dereferenceable(1) @_ZSt7nothrow) #15
  br label %cleanup.done33

cleanup.done33:                                   ; preds = %cleanup.action32, %lpad29
  br label %eh.resume

if.end43:                                         ; preds = %if.then40, %do.body35
  br label %do.end44

do.end44:                                         ; preds = %if.end43
  %call45 = call noundef ptr @_ZN3zmq20stream_engine_base_t6socketEv(ptr noundef nonnull align 8 dereferenceable(1689) %this1)
  %_endpoint_uri_pair = getelementptr inbounds %"class.zmq::stream_engine_base_t", ptr %this1, i32 0, i32 16
  call void @_ZN3zmq13socket_base_t25event_handshake_succeededERKNS_19endpoint_uri_pair_tEi(ptr noundef nonnull align 8 dereferenceable(1825) %call45, ptr noundef nonnull align 8 dereferenceable(68) %_endpoint_uri_pair, i32 noundef 0)
  call void @_ZN3zmq20stream_engine_base_t11set_polloutEv(ptr noundef nonnull align 8 dereferenceable(1689) %this1)
  br label %if.end46

if.end46:                                         ; preds = %do.end44, %if.end
  %24 = load i8, ptr %complete, align 1
  %tobool47 = trunc i8 %24 to i1
  ret i1 %tobool47

eh.resume:                                        ; preds = %cleanup.done33, %cleanup.done
  %exn = load ptr, ptr %exn.slot, align 8
  %sel = load i32, ptr %ehselector.slot, align 4
  %lpad.val = insertvalue { ptr, i32 } poison, ptr %exn, 0
  %lpad.val48 = insertvalue { ptr, i32 } %lpad.val, i32 %sel, 1
  resume { ptr, i32 } %lpad.val48
}