; Function Attrs: mustprogress uwtable
define noundef zeroext i1 @_ZN3zmq11ws_engine_t9handshakeEv(ptr noundef nonnull align 8 dereferenceable(25696) %this) unnamed_addr #0 align 2 personality ptr @__gxx_personality_v0 {
entry:
  %_client = getelementptr inbounds i8, ptr %this, i64 1689
  %0 = load i8, ptr %_client, align 1
  %1 = and i8 %0, 1
  %tobool.not = icmp eq i8 %1, 0
  br i1 %tobool.not, label %if.end, label %if.then

if.then:                                          ; preds = %entry
  %call = tail call noundef zeroext i1 @_ZN3zmq11ws_engine_t16client_handshakeEv(ptr noundef nonnull align 8 dereferenceable(25696) %this)
  br i1 %call, label %if.then5, label %if.end46

if.end:                                           ; preds = %entry
  %call2 = tail call noundef zeroext i1 @_ZN3zmq11ws_engine_t16server_handshakeEv(ptr noundef nonnull align 8 dereferenceable(25696) %this)
  br i1 %call2, label %if.then5, label %if.end46

if.then5:                                         ; preds = %if.then, %if.end
  %call6 = tail call noalias noundef dereferenceable_or_null(168) ptr @_ZnwmRKSt9nothrow_t(i64 noundef 168, ptr noundef nonnull align 1 dereferenceable(1) @_ZSt7nothrow) #25
  %new.isnull = icmp eq ptr %call6, null
  br i1 %new.isnull, label %if.then12, label %new.notnull

new.notnull:                                      ; preds = %if.then5
  %out_batch_size = getelementptr inbounds i8, ptr %this, i64 1024
  %2 = load i32, ptr %out_batch_size, align 8
  %conv = sext i32 %2 to i64
  %3 = load i8, ptr %_client, align 1
  %4 = and i8 %3, 1
  %tobool8 = icmp ne i8 %4, 0
  invoke void @_ZN3zmq12ws_encoder_tC1Emb(ptr noundef nonnull align 8 dereferenceable(168) %call6, i64 noundef %conv, i1 noundef zeroext %tobool8)
          to label %new.cont unwind label %lpad

new.cont:                                         ; preds = %new.notnull
  %_encoder = getelementptr inbounds i8, ptr %this, i64 1400
  store ptr %call6, ptr %_encoder, align 8
  br label %do.end

if.then12:                                        ; preds = %if.then5
  %_encoder5 = getelementptr inbounds i8, ptr %this, i64 1400
  store ptr null, ptr %_encoder5, align 8
  %5 = load ptr, ptr @stderr, align 8
  %call13 = tail call i32 (ptr, ptr, ...) @fprintf(ptr noundef %5, ptr noundef nonnull @.str.8, ptr noundef nonnull @.str.5, i32 noundef 245) #23
  %6 = load ptr, ptr @stderr, align 8
  %call14 = tail call i32 @fflush(ptr noundef %6)
  tail call void @_ZN3zmq9zmq_abortEPKc(ptr noundef nonnull @.str.9)
  br label %do.end

lpad:                                             ; preds = %new.notnull
  %7 = landingpad { ptr, i32 }
          cleanup
  br label %eh.resume

do.end:                                           ; preds = %new.cont, %if.then12
  %call16 = tail call noalias noundef dereferenceable_or_null(208) ptr @_ZnwmRKSt9nothrow_t(i64 noundef 208, ptr noundef nonnull align 1 dereferenceable(1) @_ZSt7nothrow) #25
  %new.isnull17 = icmp eq ptr %call16, null
  br i1 %new.isnull17, label %if.then40, label %new.notnull18

new.notnull18:                                    ; preds = %do.end
  %in_batch_size = getelementptr inbounds i8, ptr %this, i64 1020
  %8 = load i32, ptr %in_batch_size, align 4
  %conv22 = sext i32 %8 to i64
  %maxmsgsize = getelementptr inbounds i8, ptr %this, i64 368
  %9 = load i64, ptr %maxmsgsize, align 8
  %zero_copy = getelementptr inbounds i8, ptr %this, i64 1028
  %10 = load i8, ptr %zero_copy, align 4
  %11 = and i8 %10, 1
  %tobool25 = icmp ne i8 %11, 0
  %12 = load i8, ptr %_client, align 1
  %13 = and i8 %12, 1
  %tobool27.not = icmp eq i8 %13, 0
  invoke void @_ZN3zmq12ws_decoder_tC1Emlbb(ptr noundef nonnull align 8 dereferenceable(208) %call16, i64 noundef %conv22, i64 noundef %9, i1 noundef zeroext %tobool25, i1 noundef zeroext %tobool27.not)
          to label %new.cont34 unwind label %lpad29

new.cont34:                                       ; preds = %new.notnull18
  %_decoder = getelementptr inbounds i8, ptr %this, i64 1376
  store ptr %call16, ptr %_decoder, align 8
  br label %do.end44

if.then40:                                        ; preds = %do.end
  %_decoder7 = getelementptr inbounds i8, ptr %this, i64 1376
  store ptr null, ptr %_decoder7, align 8
  %14 = load ptr, ptr @stderr, align 8
  %call41 = tail call i32 (ptr, ptr, ...) @fprintf(ptr noundef %14, ptr noundef nonnull @.str.8, ptr noundef nonnull @.str.5, i32 noundef 250) #23
  %15 = load ptr, ptr @stderr, align 8
  %call42 = tail call i32 @fflush(ptr noundef %15)
  tail call void @_ZN3zmq9zmq_abortEPKc(ptr noundef nonnull @.str.9)
  br label %do.end44

lpad29:                                           ; preds = %new.notnull18
  %16 = landingpad { ptr, i32 }
          cleanup
  br label %eh.resume

do.end44:                                         ; preds = %new.cont34, %if.then40
  %_socket.i = getelementptr inbounds i8, ptr %this, i64 1680
  %17 = load ptr, ptr %_socket.i, align 8
  %_endpoint_uri_pair = getelementptr inbounds i8, ptr %this, i64 1464
  tail call void @_ZN3zmq13socket_base_t25event_handshake_succeededERKNS_19endpoint_uri_pair_tEi(ptr noundef nonnull align 8 dereferenceable(1825) %17, ptr noundef nonnull align 8 dereferenceable(68) %_endpoint_uri_pair, i32 noundef 0)
  %_handle.i = getelementptr inbounds i8, ptr %this, i64 1584
  %18 = load ptr, ptr %_handle.i, align 8
  tail call void @_ZN3zmq11io_object_t11set_polloutEPv(ptr noundef nonnull align 8 dereferenceable(16) %this, ptr noundef %18)
  br label %if.end46

if.end46:                                         ; preds = %if.then, %do.end44, %if.end
  %complete.0.in3 = phi i1 [ false, %if.then ], [ true, %do.end44 ], [ false, %if.end ]
  ret i1 %complete.0.in3

eh.resume:                                        ; preds = %lpad29, %lpad
  %call16.sink = phi ptr [ %call16, %lpad29 ], [ %call6, %lpad ]
  %.pn = phi { ptr, i32 } [ %16, %lpad29 ], [ %7, %lpad ]
  tail call void @_ZdlPvRKSt9nothrow_t(ptr noundef nonnull %call16.sink, ptr noundef nonnull align 1 dereferenceable(1) @_ZSt7nothrow) #21
  resume { ptr, i32 } %.pn
}